target datalayout = "e-m:e-p270:32:32-p271:32:32-p272:64:64-i64:64-i128:128-f80:128-n8:16:32:64-S128"
target triple = "x86_64-pc-linux-gnu"

%class.QByteArray = type { %struct.QArrayDataPointer }
%struct.QArrayDataPointer = type { ptr, ptr, i64 }
%class.QAbstractItemModel = type { %class.QObject }
%class.QObject = type { ptr, %class.QScopedPointer }
%class.QScopedPointer = type { ptr }
%class.ManufSortFilterProxyModel = type { %class.QSortFilterProxyModel, i32, %class.QByteArray, %class.QRegularExpression }
%class.QSortFilterProxyModel = type { %class.QAbstractProxyModel }
%class.QAbstractProxyModel = type { %class.QAbstractItemModel }
%class.QRegularExpression = type { %class.QExplicitlySharedDataPointer }
%class.QExplicitlySharedDataPointer = type { ptr }

; Function Attrs: mustprogress uwtable
define void @_ZN25ManufSortFilterProxyModel11clearFilterEv(ptr noundef nonnull align 8 dereferenceable(56) %0) #0 align 2 {
  %2 = alloca ptr, align 8
  store ptr %0, ptr %2, align 8
  %3 = load ptr, ptr %2, align 8
  %4 = getelementptr inbounds %class.ManufSortFilterProxyModel, ptr %3, i32 0, i32 1
  %5 = load i32, ptr %4, align 8
  %6 = icmp eq i32 %5, 0
  br i1 %6, label %7, label %8

7:                                                ; preds = %1
  br label %10

8:                                                ; preds = %1
  %9 = getelementptr inbounds %class.ManufSortFilterProxyModel, ptr %3, i32 0, i32 1
  store i32 0, ptr %9, align 8
  call void @_ZN21QSortFilterProxyModel16invalidateFilterEv(ptr noundef nonnull align 8 dereferenceable(16) %3)
  br label %10

10:                                               ; preds = %8, %7
  ret void
}