; Function Attrs: mustprogress uwtable
define void @_ZN25ManufSortFilterProxyModel11clearFilterEv(ptr noundef nonnull align 8 dereferenceable(56) %0) local_unnamed_addr #0 align 2 {
  %2 = getelementptr inbounds i8, ptr %0, i64 16
  %3 = load i32, ptr %2, align 8
  %4 = icmp eq i32 %3, 0
  br i1 %4, label %6, label %5

5:                                                ; preds = %1
  store i32 0, ptr %2, align 8
  tail call void @_ZN21QSortFilterProxyModel16invalidateFilterEv(ptr noundef nonnull align 8 dereferenceable(16) %0)
  br label %6

6:                                                ; preds = %1, %5
  ret void
}